; Function Attrs: mustprogress uwtable
define dso_local void @_ZNK11flatbuffers13BaseGenerator17GeneratedFileNameERKNSt7__cxx1112basic_stringIcSt11char_traitsIcESaIcEEES8_RKNS_10IDLOptionsE(ptr noalias sret(%"class.std::__cxx11::basic_string") align 8 %agg.result, ptr noundef nonnull align 8 dereferenceable(128) %this, ptr noundef nonnull align 8 dereferenceable(32) %path, ptr noundef nonnull align 8 dereferenceable(32) %file_name, ptr noundef nonnull align 8 dereferenceable(642) %options) local_unnamed_addr #0 align 2 personality ptr @__gxx_personality_v0 {
entry:
  %ref.tmp = alloca %"class.std::__cxx11::basic_string", align 8
  %ref.tmp2 = alloca %"class.std::__cxx11::basic_string", align 8
  %ref.tmp3 = alloca %"class.std::__cxx11::basic_string", align 8
  call void @_ZNSt7__cxx1112basic_stringIcSt11char_traitsIcESaIcEEC1ERKS4_(ptr noundef nonnull align 8 dereferenceable(32) %ref.tmp3, ptr noundef nonnull align 8 dereferenceable(32) %path)
  %call.i = invoke noundef nonnull align 8 dereferenceable(32) ptr @_ZNSt7__cxx1112basic_stringIcSt11char_traitsIcESaIcEE6appendERKS4_(ptr noundef nonnull align 8 dereferenceable(32) %ref.tmp3, ptr noundef nonnull align 8 dereferenceable(32) %file_name)
          to label %_ZStplIcSt11char_traitsIcESaIcEENSt7__cxx1112basic_stringIT_T0_T1_EERKS8_SA_.exit unwind label %lpad.i

common.resume:                                    ; preds = %lpad, %ehcleanup, %lpad.i
  %common.resume.op = phi { ptr, i32 } [ %0, %lpad.i ], [ %.pn, %ehcleanup ], [ %1, %lpad ]
  call void @_ZNSt7__cxx1112basic_stringIcSt11char_traitsIcESaIcEED1Ev(ptr noundef nonnull align 8 dereferenceable(32) %ref.tmp3) #12
  resume { ptr, i32 } %common.resume.op

lpad.i:                                           ; preds = %entry
  %0 = landingpad { ptr, i32 }
          cleanup
  br label %common.resume

_ZStplIcSt11char_traitsIcESaIcEENSt7__cxx1112basic_stringIT_T0_T1_EERKS8_SA_.exit: ; preds = %entry
  %filename_suffix = getelementptr inbounds i8, ptr %options, i64 496
  %call.i56 = invoke noundef nonnull align 8 dereferenceable(32) ptr @_ZNSt7__cxx1112basic_stringIcSt11char_traitsIcESaIcEE6appendERKS4_(ptr noundef nonnull align 8 dereferenceable(32) %ref.tmp3, ptr noundef nonnull align 8 dereferenceable(32) %filename_suffix)
          to label %invoke.cont unwind label %lpad

invoke.cont:                                      ; preds = %_ZStplIcSt11char_traitsIcESaIcEENSt7__cxx1112basic_stringIT_T0_T1_EERKS8_SA_.exit
  call void @_ZNSt7__cxx1112basic_stringIcSt11char_traitsIcESaIcEEC1EOS4_(ptr noundef nonnull align 8 dereferenceable(32) %ref.tmp2, ptr noundef nonnull align 8 dereferenceable(32) %call.i56) #12
  %call.i78 = invoke noundef nonnull align 8 dereferenceable(32) ptr @_ZNSt7__cxx1112basic_stringIcSt11char_traitsIcESaIcEE6appendEPKc(ptr noundef nonnull align 8 dereferenceable(32) %ref.tmp2, ptr noundef nonnull @.str.8)
          to label %invoke.cont5 unwind label %lpad4

invoke.cont5:                                     ; preds = %invoke.cont
  call void @_ZNSt7__cxx1112basic_stringIcSt11char_traitsIcESaIcEEC1EOS4_(ptr noundef nonnull align 8 dereferenceable(32) %ref.tmp, ptr noundef nonnull align 8 dereferenceable(32) %call.i78) #12
  %filename_extension = getelementptr inbounds i8, ptr %options, i64 528
  %call = call noundef zeroext i1 @_ZNKSt7__cxx1112basic_stringIcSt11char_traitsIcESaIcEE5emptyEv(ptr noundef nonnull align 8 dereferenceable(32) %filename_extension) #12
  %default_extension_ = getelementptr inbounds i8, ptr %this, i64 96
  %cond-lvalue = select i1 %call, ptr %default_extension_, ptr %filename_extension
  %call.i910 = invoke noundef nonnull align 8 dereferenceable(32) ptr @_ZNSt7__cxx1112basic_stringIcSt11char_traitsIcESaIcEE6appendERKS4_(ptr noundef nonnull align 8 dereferenceable(32) %ref.tmp, ptr noundef nonnull align 8 dereferenceable(32) %cond-lvalue)
          to label %invoke.cont8 unwind label %lpad7

invoke.cont8:                                     ; preds = %invoke.cont5
  call void @_ZNSt7__cxx1112basic_stringIcSt11char_traitsIcESaIcEEC1EOS4_(ptr noundef nonnull align 8 dereferenceable(32) %agg.result, ptr noundef nonnull align 8 dereferenceable(32) %call.i910) #12
  call void @_ZNSt7__cxx1112basic_stringIcSt11char_traitsIcESaIcEED1Ev(ptr noundef nonnull align 8 dereferenceable(32) %ref.tmp) #12
  call void @_ZNSt7__cxx1112basic_stringIcSt11char_traitsIcESaIcEED1Ev(ptr noundef nonnull align 8 dereferenceable(32) %ref.tmp2) #12
  call void @_ZNSt7__cxx1112basic_stringIcSt11char_traitsIcESaIcEED1Ev(ptr noundef nonnull align 8 dereferenceable(32) %ref.tmp3) #12
  ret void

lpad:                                             ; preds = %_ZStplIcSt11char_traitsIcESaIcEENSt7__cxx1112basic_stringIT_T0_T1_EERKS8_SA_.exit
  %1 = landingpad { ptr, i32 }
          cleanup
  br label %common.resume

lpad4:                                            ; preds = %invoke.cont
  %2 = landingpad { ptr, i32 }
          cleanup
  br label %ehcleanup

lpad7:                                            ; preds = %invoke.cont5
  %3 = landingpad { ptr, i32 }
          cleanup
  call void @_ZNSt7__cxx1112basic_stringIcSt11char_traitsIcESaIcEED1Ev(ptr noundef nonnull align 8 dereferenceable(32) %ref.tmp) #12
  br label %ehcleanup

ehcleanup:                                        ; preds = %lpad7, %lpad4
  %.pn = phi { ptr, i32 } [ %3, %lpad7 ], [ %2, %lpad4 ]
  call void @_ZNSt7__cxx1112basic_stringIcSt11char_traitsIcESaIcEED1Ev(ptr noundef nonnull align 8 dereferenceable(32) %ref.tmp2) #12
  br label %common.resume
}